target datalayout = "e-m:e-p270:32:32-p271:32:32-p272:64:64-i64:64-i128:128-f80:128-n8:16:32:64-S128"
target triple = "x86_64-pc-linux-gnu"

%struct.EC_PKEY_CTX = type { ptr, ptr, ptr, i8, i8, ptr, ptr, i64, i64 }
%struct.evp_pkey_ctx_st = type { i32, ptr, ptr, ptr, ptr, %union.anon, %struct.anon.4, ptr, ptr, ptr, i32, i32, ptr, ptr, ptr, ptr, ptr, i8, ptr }
%union.anon = type { %struct.anon.0 }
%struct.anon.0 = type { ptr, ptr }
%struct.anon.4 = type { ptr, ptr, i64, i8 }

@.str = private unnamed_addr constant [32 x i8] c"../openssl/crypto/ec/ec_pmeth.c\00", align 1
@__func__.pkey_ec_paramgen = private unnamed_addr constant [17 x i8] c"pkey_ec_paramgen\00", align 1

; Function Attrs: nounwind uwtable
define internal i32 @pkey_ec_paramgen(ptr noundef %0, ptr noundef %1) #0 {
  %3 = alloca i32, align 4
  %4 = alloca ptr, align 8
  %5 = alloca ptr, align 8
  %6 = alloca ptr, align 8
  %7 = alloca ptr, align 8
  %8 = alloca i32, align 4
  %9 = alloca i32, align 4
  store ptr %0, ptr %4, align 8, !tbaa !3
  store ptr %1, ptr %5, align 8, !tbaa !35
  call void @llvm.lifetime.start.p0(i64 8, ptr %6) #7
  store ptr null, ptr %6, align 8, !tbaa !36
  call void @llvm.lifetime.start.p0(i64 8, ptr %7) #7
  %10 = load ptr, ptr %4, align 8, !tbaa !3
  %11 = getelementptr inbounds nuw %struct.evp_pkey_ctx_st, ptr %10, i32 0, i32 16
  %12 = load ptr, ptr %11, align 8, !tbaa !17
  store ptr %12, ptr %7, align 8, !tbaa !8
  call void @llvm.lifetime.start.p0(i64 4, ptr %8) #7
  %13 = load ptr, ptr %7, align 8, !tbaa !8
  %14 = getelementptr inbounds nuw %struct.EC_PKEY_CTX, ptr %13, i32 0, i32 0
  %15 = load ptr, ptr %14, align 8, !tbaa !28
  %16 = icmp eq ptr %15, null
  br i1 %16, label %17, label %18

17:                                               ; preds = %2
  call void @ERR_new()
  call void @ERR_set_debug(ptr noundef @.str, i32 noundef 435, ptr noundef @__func__.pkey_ec_paramgen)
  call void (i32, i32, ptr, ...) @ERR_set_error(i32 noundef 16, i32 noundef 139, ptr noundef null)
  store i32 0, ptr %3, align 4
  store i32 1, ptr %9, align 4
  br label %45

18:                                               ; preds = %2
  %19 = call ptr @EC_KEY_new()
  store ptr %19, ptr %6, align 8, !tbaa !36
  %20 = load ptr, ptr %6, align 8, !tbaa !36
  %21 = icmp eq ptr %20, null
  br i1 %21, label %22, label %23

22:                                               ; preds = %18
  store i32 0, ptr %3, align 4
  store i32 1, ptr %9, align 4
  br label %45

23:                                               ; preds = %18
  %24 = load ptr, ptr %6, align 8, !tbaa !36
  %25 = load ptr, ptr %7, align 8, !tbaa !8
  %26 = getelementptr inbounds nuw %struct.EC_PKEY_CTX, ptr %25, i32 0, i32 0
  %27 = load ptr, ptr %26, align 8, !tbaa !28
  %28 = call i32 @EC_KEY_set_group(ptr noundef %24, ptr noundef %27)
  store i32 %28, ptr %8, align 4, !tbaa !37
  %29 = icmp ne i32 %28, 0
  br i1 %29, label %30, label %41

30:                                               ; preds = %23
  %31 = load ptr, ptr %5, align 8, !tbaa !35
  %32 = load ptr, ptr %6, align 8, !tbaa !36
  %33 = call i32 @EVP_PKEY_assign(ptr noundef %31, i32 noundef 408, ptr noundef %32)
  store i32 %33, ptr %8, align 4, !tbaa !37
  %34 = icmp ne i32 %33, 0
  %35 = xor i1 %34, true
  %36 = xor i1 %35, true
  %37 = zext i1 %36 to i32
  %38 = sext i32 %37 to i64
  %39 = call i64 @llvm.expect.i64(i64 %38, i64 1)
  %40 = icmp ne i64 %39, 0
  br i1 %40, label %43, label %41

41:                                               ; preds = %30, %23
  %42 = load ptr, ptr %6, align 8, !tbaa !36
  call void @EC_KEY_free(ptr noundef %42)
  br label %43

43:                                               ; preds = %41, %30
  %44 = load i32, ptr %8, align 4, !tbaa !37
  store i32 %44, ptr %3, align 4
  store i32 1, ptr %9, align 4
  br label %45

45:                                               ; preds = %43, %22, %17
  call void @llvm.lifetime.end.p0(i64 4, ptr %8) #7
  call void @llvm.lifetime.end.p0(i64 8, ptr %7) #7
  call void @llvm.lifetime.end.p0(i64 8, ptr %6) #7
  %46 = load i32, ptr %3, align 4
  ret i32 %46
}