; Function Attrs: nounwind uwtable
define internal i32 @pkey_ec_paramgen(ptr noundef readonly captures(none) %0, ptr noundef %1) #1 {
  %3 = getelementptr inbounds nuw i8, ptr %0, i64 152
  %4 = load ptr, ptr %3, align 8, !tbaa !14
  %5 = load ptr, ptr %4, align 8, !tbaa !25
  %6 = icmp eq ptr %5, null
  br i1 %6, label %7, label %8

7:                                                ; preds = %2
  tail call void @ERR_new() #6
  tail call void @ERR_set_debug(ptr noundef nonnull @.str, i32 noundef 435, ptr noundef nonnull @__func__.pkey_ec_paramgen) #6
  tail call void (i32, i32, ptr, ...) @ERR_set_error(i32 noundef 16, i32 noundef 139, ptr noundef null) #6
  br label %17

8:                                                ; preds = %2
  %9 = tail call ptr @EC_KEY_new() #6
  %10 = icmp eq ptr %9, null
  br i1 %10, label %17, label %11

11:                                               ; preds = %8
  %12 = load ptr, ptr %4, align 8, !tbaa !25
  %13 = tail call i32 @EC_KEY_set_group(ptr noundef nonnull %9, ptr noundef %12) #6
  %.not = icmp eq i32 %13, 0
  br i1 %.not, label %16, label %14

14:                                               ; preds = %11
  %15 = tail call i32 @EVP_PKEY_assign(ptr noundef %1, i32 noundef 408, ptr noundef nonnull %9) #6
  %.not14 = icmp eq i32 %15, 0
  br i1 %.not14, label %16, label %17, !prof !32

16:                                               ; preds = %14, %11
  tail call void @EC_KEY_free(ptr noundef nonnull %9) #6
  br label %17

17:                                               ; preds = %14, %16, %8, %7
  %.09 = phi i32 [ 0, %7 ], [ 0, %8 ], [ %15, %14 ], [ 0, %16 ]
  ret i32 %.09
}